target datalayout = "e-m:e-p270:32:32-p271:32:32-p272:64:64-i64:64-i128:128-f80:128-n8:16:32:64-S128"
target triple = "x86_64-unknown-linux-gnu"

%struct.grpc_op = type { i32, i32, ptr, %"union.grpc_op::grpc_op_data" }
%"union.grpc_op::grpc_op_data" = type { %struct.anon }
%struct.anon = type { [8 x ptr] }
%"struct.grpc_op::grpc_op_data::grpc_op_send_initial_metadata" = type { i64, ptr, %"struct.grpc_op::grpc_op_data::grpc_op_send_initial_metadata::grpc_op_send_initial_metadata_maybe_compression_level" }
%"struct.grpc_op::grpc_op_data::grpc_op_send_initial_metadata::grpc_op_send_initial_metadata_maybe_compression_level" = type { i8, i32 }
%"struct.grpc_op::grpc_op_data::grpc_op_send_status_from_server" = type { i64, ptr, i32, ptr }
%"class.grpc_core::BitSet.308" = type { [1 x i8] }

; Function Attrs: mustprogress nounwind uwtable
define linkonce_odr noundef zeroext i8 @_ZN9grpc_core6BitSetILm8ELm8EE8mask_forEm(i64 noundef %bit) #5 comdat align 2 {
entry:
  %bit.addr = alloca i64, align 8
  store i64 %bit, ptr %bit.addr, align 8
  %0 = load i64, ptr %bit.addr, align 8
  %rem = urem i64 %0, 8
  %sh_prom = trunc i64 %rem to i32
  %shl = shl i32 1, %sh_prom
  %conv = trunc i32 %shl to i8
  ret i8 %conv
}

; Function Attrs: mustprogress nounwind uwtable
define linkonce_odr noundef i64 @_ZN9grpc_core6BitSetILm8ELm8EE8unit_forEm(i64 noundef %bit) #5 comdat align 2 {
entry:
  %bit.addr = alloca i64, align 8
  store i64 %bit, ptr %bit.addr, align 8
  %0 = load i64, ptr %bit.addr, align 8
  %div = udiv i64 %0, 8
  ret i64 %div
}

; Function Attrs: mustprogress nounwind uwtable
define linkonce_odr void @_ZN9grpc_core6BitSetILm8ELm8EE3setEi(ptr noundef nonnull align 1 dereferenceable(1) %this, i32 noundef %i) #5 comdat align 2 {
entry:
  %this.addr = alloca ptr, align 8
  %i.addr = alloca i32, align 4
  store ptr %this, ptr %this.addr, align 8
  store i32 %i, ptr %i.addr, align 4
  %this1 = load ptr, ptr %this.addr, align 8
  %0 = load i32, ptr %i.addr, align 4
  %conv = sext i32 %0 to i64
  %call = call noundef zeroext i8 @_ZN9grpc_core6BitSetILm8ELm8EE8mask_forEm(i64 noundef %conv)
  %conv2 = zext i8 %call to i32
  %units_ = getelementptr inbounds %"class.grpc_core::BitSet.308", ptr %this1, i32 0, i32 0
  %1 = load i32, ptr %i.addr, align 4
  %conv3 = sext i32 %1 to i64
  %call4 = call noundef i64 @_ZN9grpc_core6BitSetILm8ELm8EE8unit_forEm(i64 noundef %conv3)
  %arrayidx = getelementptr inbounds [1 x i8], ptr %units_, i64 0, i64 %call4
  %2 = load i8, ptr %arrayidx, align 1
  %conv5 = zext i8 %2 to i32
  %or = or i32 %conv5, %conv2
  %conv6 = trunc i32 %or to i8
  store i8 %conv6, ptr %arrayidx, align 1
  ret void
}

; Function Attrs: mustprogress uwtable
define linkonce_odr noundef zeroext i1 @_ZNK9grpc_core6BitSetILm8ELm8EE6is_setEi(ptr noundef nonnull align 1 dereferenceable(1) %this, i32 noundef %i) #4 comdat align 2 {
entry:
  %this.addr = alloca ptr, align 8
  %i.addr = alloca i32, align 4
  store ptr %this, ptr %this.addr, align 8
  store i32 %i, ptr %i.addr, align 4
  %this1 = load ptr, ptr %this.addr, align 8
  %units_ = getelementptr inbounds %"class.grpc_core::BitSet.308", ptr %this1, i32 0, i32 0
  %0 = load i32, ptr %i.addr, align 4
  %conv = sext i32 %0 to i64
  %call = call noundef i64 @_ZN9grpc_core6BitSetILm8ELm8EE8unit_forEm(i64 noundef %conv)
  %arrayidx = getelementptr inbounds [1 x i8], ptr %units_, i64 0, i64 %call
  %1 = load i8, ptr %arrayidx, align 1
  %conv2 = zext i8 %1 to i32
  %2 = load i32, ptr %i.addr, align 4
  %conv3 = sext i32 %2 to i64
  %call4 = call noundef zeroext i8 @_ZN9grpc_core6BitSetILm8ELm8EE8mask_forEm(i64 noundef %conv3)
  %conv5 = zext i8 %call4 to i32
  %and = and i32 %conv2, %conv5
  %cmp = icmp ne i32 %and, 0
  ret i1 %cmp
}

; Function Attrs: mustprogress nounwind uwtable
define internal noundef zeroext i1 @_ZN9grpc_core12_GLOBAL__N_118AreWriteFlagsValidEj(i32 noundef %flags) #5 {
entry:
  %flags.addr = alloca i32, align 4
  %allowed_write_positions = alloca i32, align 4
  %invalid_positions = alloca i32, align 4
  store i32 %flags, ptr %flags.addr, align 4
  store i32 -1073741817, ptr %allowed_write_positions, align 4
  store i32 1073741816, ptr %invalid_positions, align 4
  %0 = load i32, ptr %flags.addr, align 4
  %and = and i32 %0, 1073741816
  %tobool = icmp ne i32 %and, 0
  %lnot = xor i1 %tobool, true
  ret i1 %lnot
}

; Function Attrs: mustprogress nounwind uwtable
define internal noundef zeroext i1 @_ZN9grpc_core12_GLOBAL__N_128AreInitialMetadataFlagsValidEj(i32 noundef %flags) #5 {
entry:
  %flags.addr = alloca i32, align 4
  %invalid_positions = alloca i32, align 4
  store i32 %flags, ptr %flags.addr, align 4
  store i32 -165, ptr %invalid_positions, align 4
  %0 = load i32, ptr %flags.addr, align 4
  %1 = load i32, ptr %invalid_positions, align 4
  %and = and i32 %0, %1
  %tobool = icmp ne i32 %and, 0
  %lnot = xor i1 %tobool, true
  ret i1 %lnot
}

; Function Attrs: mustprogress nounwind uwtable
define linkonce_odr void @_ZN9grpc_core6BitSetILm8ELm8EEC2Ev(ptr noundef nonnull align 1 dereferenceable(1) %this) unnamed_addr #5 comdat align 2 {
entry:
  %this.addr = alloca ptr, align 8
  store ptr %this, ptr %this.addr, align 8
  %this1 = load ptr, ptr %this.addr, align 8
  %units_ = getelementptr inbounds %"class.grpc_core::BitSet.308", ptr %this1, i32 0, i32 0
  %arrayinit.begin = getelementptr inbounds [1 x i8], ptr %units_, i64 0, i64 0
  %arrayinit.end = getelementptr inbounds i8, ptr %arrayinit.begin, i64 1
  br label %arrayinit.body

arrayinit.body:                                   ; preds = %arrayinit.body, %entry
  %arrayinit.cur = phi ptr [ %arrayinit.begin, %entry ], [ %arrayinit.next, %arrayinit.body ]
  store i8 0, ptr %arrayinit.cur, align 1
  %arrayinit.next = getelementptr inbounds i8, ptr %arrayinit.cur, i64 1
  %arrayinit.done = icmp eq ptr %arrayinit.next, %arrayinit.end
  br i1 %arrayinit.done, label %arrayinit.end2, label %arrayinit.body

arrayinit.end2:                                   ; preds = %arrayinit.body
  ret void
}

; Function Attrs: mustprogress uwtable
define noundef i32 @_ZNK9grpc_core22ServerPromiseBasedCall13ValidateBatchEPK7grpc_opm(ptr noundef nonnull align 8 dereferenceable(1200) %this, ptr noundef %ops, i64 noundef %nops) #4 align 2 {
entry:
  %retval = alloca i32, align 4
  %this.addr = alloca ptr, align 8
  %ops.addr = alloca ptr, align 8
  %nops.addr = alloca i64, align 8
  %got_ops = alloca %"class.grpc_core::BitSet.308", align 1
  %op_idx = alloca i64, align 8
  %op = alloca ptr, align 8
  store ptr %this, ptr %this.addr, align 8
  store ptr %ops, ptr %ops.addr, align 8
  store i64 %nops, ptr %nops.addr, align 8
  call void @_ZN9grpc_core6BitSetILm8ELm8EEC2Ev(ptr noundef nonnull align 1 dereferenceable(1) %got_ops)
  store i64 0, ptr %op_idx, align 8
  br label %for.cond

for.cond:                                         ; preds = %for.inc, %entry
  %0 = load i64, ptr %op_idx, align 8
  %1 = load i64, ptr %nops.addr, align 8
  %cmp = icmp ult i64 %0, %1
  br i1 %cmp, label %for.body, label %for.end

for.body:                                         ; preds = %for.cond
  %2 = load ptr, ptr %ops.addr, align 8
  %3 = load i64, ptr %op_idx, align 8
  %arrayidx = getelementptr inbounds %struct.grpc_op, ptr %2, i64 %3
  store ptr %arrayidx, ptr %op, align 8
  %4 = load ptr, ptr %op, align 8
  %op2 = getelementptr inbounds %struct.grpc_op, ptr %4, i32 0, i32 0
  %5 = load i32, ptr %op2, align 8
  switch i32 %5, label %sw.epilog [
    i32 0, label %sw.bb
    i32 1, label %sw.bb7
    i32 3, label %sw.bb12
    i32 5, label %sw.bb22
    i32 7, label %sw.bb22
    i32 4, label %sw.bb27
    i32 2, label %sw.bb27
    i32 6, label %sw.bb27
  ]

sw.bb:                                            ; preds = %for.body
  %6 = load ptr, ptr %op, align 8
  %flags = getelementptr inbounds %struct.grpc_op, ptr %6, i32 0, i32 1
  %7 = load i32, ptr %flags, align 4
  %call = call noundef zeroext i1 @_ZN9grpc_core12_GLOBAL__N_128AreInitialMetadataFlagsValidEj(i32 noundef %7)
  br i1 %call, label %if.end, label %if.then

if.then:                                          ; preds = %sw.bb
  store i32 9, ptr %retval, align 4
  br label %return

if.end:                                           ; preds = %sw.bb
  %8 = load ptr, ptr %op, align 8
  %data = getelementptr inbounds %struct.grpc_op, ptr %8, i32 0, i32 3
  %count = getelementptr inbounds %"struct.grpc_op::grpc_op_data::grpc_op_send_initial_metadata", ptr %data, i32 0, i32 0
  %9 = load i64, ptr %count, align 8
  %10 = load ptr, ptr %op, align 8
  %data3 = getelementptr inbounds %struct.grpc_op, ptr %10, i32 0, i32 3
  %metadata = getelementptr inbounds %"struct.grpc_op::grpc_op_data::grpc_op_send_initial_metadata", ptr %data3, i32 0, i32 1
  %11 = load ptr, ptr %metadata, align 8
  %call4 = call noundef zeroext i1 @_ZN9grpc_core12_GLOBAL__N_116ValidateMetadataEmP13grpc_metadata(i64 noundef %9, ptr noundef %11)
  br i1 %call4, label %if.end6, label %if.then5

if.then5:                                         ; preds = %if.end
  store i32 10, ptr %retval, align 4
  br label %return

if.end6:                                          ; preds = %if.end
  br label %sw.epilog

sw.bb7:                                           ; preds = %for.body
  %12 = load ptr, ptr %op, align 8
  %flags8 = getelementptr inbounds %struct.grpc_op, ptr %12, i32 0, i32 1
  %13 = load i32, ptr %flags8, align 4
  %call9 = call noundef zeroext i1 @_ZN9grpc_core12_GLOBAL__N_118AreWriteFlagsValidEj(i32 noundef %13)
  br i1 %call9, label %if.end11, label %if.then10

if.then10:                                        ; preds = %sw.bb7
  store i32 9, ptr %retval, align 4
  br label %return

if.end11:                                         ; preds = %sw.bb7
  br label %sw.epilog

sw.bb12:                                          ; preds = %for.body
  %14 = load ptr, ptr %op, align 8
  %flags13 = getelementptr inbounds %struct.grpc_op, ptr %14, i32 0, i32 1
  %15 = load i32, ptr %flags13, align 4
  %cmp14 = icmp ne i32 %15, 0
  br i1 %cmp14, label %if.then15, label %if.end16

if.then15:                                        ; preds = %sw.bb12
  store i32 9, ptr %retval, align 4
  br label %return

if.end16:                                         ; preds = %sw.bb12
  %16 = load ptr, ptr %op, align 8
  %data17 = getelementptr inbounds %struct.grpc_op, ptr %16, i32 0, i32 3
  %trailing_metadata_count = getelementptr inbounds %"struct.grpc_op::grpc_op_data::grpc_op_send_status_from_server", ptr %data17, i32 0, i32 0
  %17 = load i64, ptr %trailing_metadata_count, align 8
  %18 = load ptr, ptr %op, align 8
  %data18 = getelementptr inbounds %struct.grpc_op, ptr %18, i32 0, i32 3
  %trailing_metadata = getelementptr inbounds %"struct.grpc_op::grpc_op_data::grpc_op_send_status_from_server", ptr %data18, i32 0, i32 1
  %19 = load ptr, ptr %trailing_metadata, align 8
  %call19 = call noundef zeroext i1 @_ZN9grpc_core12_GLOBAL__N_116ValidateMetadataEmP13grpc_metadata(i64 noundef %17, ptr noundef %19)
  br i1 %call19, label %if.end21, label %if.then20

if.then20:                                        ; preds = %if.end16
  store i32 10, ptr %retval, align 4
  br label %return

if.end21:                                         ; preds = %if.end16
  br label %sw.epilog

sw.bb22:                                          ; preds = %for.body, %for.body
  %20 = load ptr, ptr %op, align 8
  %flags23 = getelementptr inbounds %struct.grpc_op, ptr %20, i32 0, i32 1
  %21 = load i32, ptr %flags23, align 4
  %cmp24 = icmp ne i32 %21, 0
  br i1 %cmp24, label %if.then25, label %if.end26

if.then25:                                        ; preds = %sw.bb22
  store i32 9, ptr %retval, align 4
  br label %return

if.end26:                                         ; preds = %sw.bb22
  br label %sw.epilog

sw.bb27:                                          ; preds = %for.body, %for.body, %for.body
  store i32 2, ptr %retval, align 4
  br label %return

sw.epilog:                                        ; preds = %if.end26, %if.end21, %if.end11, %if.end6, %for.body
  %22 = load ptr, ptr %op, align 8
  %op28 = getelementptr inbounds %struct.grpc_op, ptr %22, i32 0, i32 0
  %23 = load i32, ptr %op28, align 8
  %call29 = call noundef zeroext i1 @_ZNK9grpc_core6BitSetILm8ELm8EE6is_setEi(ptr noundef nonnull align 1 dereferenceable(1) %got_ops, i32 noundef %23)
  br i1 %call29, label %if.then30, label %if.end31

if.then30:                                        ; preds = %sw.epilog
  store i32 8, ptr %retval, align 4
  br label %return

if.end31:                                         ; preds = %sw.epilog
  %24 = load ptr, ptr %op, align 8
  %op32 = getelementptr inbounds %struct.grpc_op, ptr %24, i32 0, i32 0
  %25 = load i32, ptr %op32, align 8
  call void @_ZN9grpc_core6BitSetILm8ELm8EE3setEi(ptr noundef nonnull align 1 dereferenceable(1) %got_ops, i32 noundef %25)
  br label %for.inc

for.inc:                                          ; preds = %if.end31
  %26 = load i64, ptr %op_idx, align 8
  %inc = add i64 %26, 1
  store i64 %inc, ptr %op_idx, align 8
  br label %for.cond, !llvm.loop !19

for.end:                                          ; preds = %for.cond
  store i32 0, ptr %retval, align 4
  br label %return

return:                                           ; preds = %for.end, %if.then30, %sw.bb27, %if.then25, %if.then20, %if.then15, %if.then10, %if.then5, %if.then
  %27 = load i32, ptr %retval, align 4
  ret i32 %27
}