; Function Attrs: mustprogress uwtable
define noundef i32 @_ZNK9grpc_core22ServerPromiseBasedCall13ValidateBatchEPK7grpc_opm(ptr nocapture nonnull readnone align 8 %this, ptr nocapture noundef readonly %ops, i64 noundef %nops) local_unnamed_addr #3 align 2 {
entry:
  %cmp21.not = icmp eq i64 %nops, 0
  br i1 %cmp21.not, label %return, label %for.body

for.body:                                         ; preds = %entry, %if.end31
  %op_idx.023 = phi i64 [ %inc, %if.end31 ], [ 0, %entry ]
  %or2.i2022 = phi i8 [ %or2.i, %if.end31 ], [ 0, %entry ]
  %arrayidx = getelementptr inbounds %struct.grpc_op, ptr %ops, i64 %op_idx.023
  %0 = load i32, ptr %arrayidx, align 8
  switch i32 %0, label %sw.epilog [
    i32 0, label %sw.bb
    i32 1, label %sw.bb7
    i32 3, label %sw.bb12
    i32 5, label %sw.bb22
    i32 7, label %sw.bb22
    i32 4, label %return
    i32 2, label %return
    i32 6, label %return
  ]

sw.bb:                                            ; preds = %for.body
  %flags = getelementptr inbounds i8, ptr %arrayidx, i64 4
  %1 = load i32, ptr %flags, align 4
  %and.i = and i32 %1, -165
  %tobool.not.i = icmp eq i32 %and.i, 0
  br i1 %tobool.not.i, label %if.end, label %return

if.end:                                           ; preds = %sw.bb
  %data = getelementptr inbounds i8, ptr %arrayidx, i64 16
  %2 = load i64, ptr %data, align 8
  %metadata = getelementptr inbounds i8, ptr %arrayidx, i64 24
  %3 = load ptr, ptr %metadata, align 8
  %call4 = tail call fastcc noundef zeroext i1 @_ZN9grpc_core12_GLOBAL__N_116ValidateMetadataEmP13grpc_metadata(i64 noundef %2, ptr noundef %3)
  br i1 %call4, label %sw.epilog, label %return

sw.bb7:                                           ; preds = %for.body
  %flags8 = getelementptr inbounds i8, ptr %arrayidx, i64 4
  %4 = load i32, ptr %flags8, align 4
  %and.i13 = and i32 %4, 1073741816
  %tobool.not.i14 = icmp eq i32 %and.i13, 0
  br i1 %tobool.not.i14, label %sw.epilog, label %return

sw.bb12:                                          ; preds = %for.body
  %flags13 = getelementptr inbounds i8, ptr %arrayidx, i64 4
  %5 = load i32, ptr %flags13, align 4
  %cmp14.not = icmp eq i32 %5, 0
  br i1 %cmp14.not, label %if.end16, label %return

if.end16:                                         ; preds = %sw.bb12
  %data17 = getelementptr inbounds i8, ptr %arrayidx, i64 16
  %6 = load i64, ptr %data17, align 8
  %trailing_metadata = getelementptr inbounds i8, ptr %arrayidx, i64 24
  %7 = load ptr, ptr %trailing_metadata, align 8
  %call19 = tail call fastcc noundef zeroext i1 @_ZN9grpc_core12_GLOBAL__N_116ValidateMetadataEmP13grpc_metadata(i64 noundef %6, ptr noundef %7)
  br i1 %call19, label %sw.epilog, label %return

sw.bb22:                                          ; preds = %for.body, %for.body
  %flags23 = getelementptr inbounds i8, ptr %arrayidx, i64 4
  %8 = load i32, ptr %flags23, align 4
  %cmp24.not = icmp eq i32 %8, 0
  br i1 %cmp24.not, label %sw.epilog, label %return

sw.epilog:                                        ; preds = %sw.bb22, %if.end16, %sw.bb7, %if.end, %for.body
  %9 = load i32, ptr %arrayidx, align 8
  %10 = trunc i32 %9 to i8
  %sh_prom.i.i = and i8 %10, 7
  %shl.i.i = shl nuw i8 1, %sh_prom.i.i
  %and2.i = and i8 %shl.i.i, %or2.i2022
  %cmp.i.not = icmp eq i8 %and2.i, 0
  br i1 %cmp.i.not, label %if.end31, label %return

if.end31:                                         ; preds = %sw.epilog
  %or2.i = or i8 %shl.i.i, %or2.i2022
  %inc = add nuw i64 %op_idx.023, 1
  %exitcond.not = icmp eq i64 %inc, %nops
  br i1 %exitcond.not, label %return, label %for.body, !llvm.loop !186

return:                                           ; preds = %sw.bb, %if.end, %sw.bb7, %sw.bb12, %if.end16, %sw.bb22, %for.body, %for.body, %for.body, %sw.epilog, %if.end31, %entry
  %retval.0 = phi i32 [ 0, %entry ], [ 0, %if.end31 ], [ 8, %sw.epilog ], [ 2, %for.body ], [ 2, %for.body ], [ 2, %for.body ], [ 9, %sw.bb22 ], [ 10, %if.end16 ], [ 9, %sw.bb12 ], [ 9, %sw.bb7 ], [ 10, %if.end ], [ 9, %sw.bb ]
  ret i32 %retval.0
}